target datalayout = "e-m:e-p270:32:32-p271:32:32-p272:64:64-i64:64-i128:128-f80:128-n8:16:32:64-S128"
target triple = "x86_64-pc-linux-gnu"

; Function Attrs: mustprogress nounwind uwtable
define void @_Z21normalize_probabilityiPd(i32 noundef %0, ptr noundef %1) #3 {
  %3 = alloca i32, align 4
  %4 = alloca ptr, align 8
  %5 = alloca i32, align 4
  %6 = alloca double, align 8
  store i32 %0, ptr %3, align 4, !tbaa !66
  store ptr %1, ptr %4, align 8, !tbaa !68
  call void @llvm.lifetime.start.p0(i64 4, ptr %5) #15
  call void @llvm.lifetime.start.p0(i64 8, ptr %6) #15
  store double 0.000000e+00, ptr %6, align 8, !tbaa !70
  store i32 0, ptr %5, align 4, !tbaa !66
  br label %7

7:                                                ; preds = %19, %2
  %8 = load i32, ptr %5, align 4, !tbaa !66
  %9 = load i32, ptr %3, align 4, !tbaa !66
  %10 = icmp slt i32 %8, %9
  br i1 %10, label %11, label %22

11:                                               ; preds = %7
  %12 = load ptr, ptr %4, align 8, !tbaa !68
  %13 = load i32, ptr %5, align 4, !tbaa !66
  %14 = sext i32 %13 to i64
  %15 = getelementptr inbounds double, ptr %12, i64 %14
  %16 = load double, ptr %15, align 8, !tbaa !70
  %17 = load double, ptr %6, align 8, !tbaa !70
  %18 = fadd double %17, %16
  store double %18, ptr %6, align 8, !tbaa !70
  br label %19

19:                                               ; preds = %11
  %20 = load i32, ptr %5, align 4, !tbaa !66
  %21 = add nsw i32 %20, 1
  store i32 %21, ptr %5, align 4, !tbaa !66
  br label %7, !llvm.loop !72

22:                                               ; preds = %7
  store i32 0, ptr %5, align 4, !tbaa !66
  br label %23

23:                                               ; preds = %35, %22
  %24 = load i32, ptr %5, align 4, !tbaa !66
  %25 = load i32, ptr %3, align 4, !tbaa !66
  %26 = icmp slt i32 %24, %25
  br i1 %26, label %27, label %38

27:                                               ; preds = %23
  %28 = load double, ptr %6, align 8, !tbaa !70
  %29 = load ptr, ptr %4, align 8, !tbaa !68
  %30 = load i32, ptr %5, align 4, !tbaa !66
  %31 = sext i32 %30 to i64
  %32 = getelementptr inbounds double, ptr %29, i64 %31
  %33 = load double, ptr %32, align 8, !tbaa !70
  %34 = fdiv double %33, %28
  store double %34, ptr %32, align 8, !tbaa !70
  br label %35

35:                                               ; preds = %27
  %36 = load i32, ptr %5, align 4, !tbaa !66
  %37 = add nsw i32 %36, 1
  store i32 %37, ptr %5, align 4, !tbaa !66
  br label %23, !llvm.loop !74

38:                                               ; preds = %23
  call void @llvm.lifetime.end.p0(i64 8, ptr %6) #15
  call void @llvm.lifetime.end.p0(i64 4, ptr %5) #15
  ret void
}