; Function Attrs: mustprogress nofree norecurse nosync nounwind memory(argmem: readwrite) uwtable
define void @_Z21normalize_probabilityiPd(i32 noundef %0, ptr noundef captures(none) %1) local_unnamed_addr #11 {
  %3 = icmp sgt i32 %0, 0
  br i1 %3, label %.lr.ph.preheader, label %._crit_edge

.lr.ph.preheader:                                 ; preds = %2
  %wide.trip.count = zext nneg i32 %0 to i64
  br label %.lr.ph

.lr.ph16.preheader:                               ; preds = %.lr.ph
  %wide.trip.count21 = zext nneg i32 %0 to i64
  br label %.lr.ph16

.lr.ph:                                           ; preds = %.lr.ph.preheader, %.lr.ph
  %indvars.iv = phi i64 [ 0, %.lr.ph.preheader ], [ %indvars.iv.next, %.lr.ph ]
  %.014 = phi double [ 0.000000e+00, %.lr.ph.preheader ], [ %6, %.lr.ph ]
  %4 = getelementptr inbounds nuw double, ptr %1, i64 %indvars.iv
  %5 = load double, ptr %4, align 8, !tbaa !18
  %6 = fadd double %.014, %5
  %indvars.iv.next = add nuw nsw i64 %indvars.iv, 1
  %exitcond.not = icmp eq i64 %indvars.iv.next, %wide.trip.count
  br i1 %exitcond.not, label %.lr.ph16.preheader, label %.lr.ph, !llvm.loop !20

.lr.ph16:                                         ; preds = %.lr.ph16.preheader, %.lr.ph16
  %indvars.iv18 = phi i64 [ 0, %.lr.ph16.preheader ], [ %indvars.iv.next19, %.lr.ph16 ]
  %7 = getelementptr inbounds nuw double, ptr %1, i64 %indvars.iv18
  %8 = load double, ptr %7, align 8, !tbaa !18
  %9 = fdiv double %8, %6
  store double %9, ptr %7, align 8, !tbaa !18
  %indvars.iv.next19 = add nuw nsw i64 %indvars.iv18, 1
  %exitcond22.not = icmp eq i64 %indvars.iv.next19, %wide.trip.count21
  br i1 %exitcond22.not, label %._crit_edge, label %.lr.ph16, !llvm.loop !22

._crit_edge:                                      ; preds = %.lr.ph16, %2
  ret void
}